target datalayout = "e-m:e-p270:32:32-p271:32:32-p272:64:64-i64:64-i128:128-f80:128-n8:16:32:64-S128"
target triple = "x86_64-unknown-linux-gnu"

%"class.icu_75::UObject" = type { ptr }
%"class.icu_75::AlphabeticIndex::Bucket" = type { %"class.icu_75::UObject", %"class.icu_75::UnicodeString", %"class.icu_75::UnicodeString", i32, ptr, i32, ptr }
%"class.icu_75::UnicodeString" = type { %"class.icu_75::Replaceable", %"union.icu_75::UnicodeString::StackBufferOrFields" }
%"class.icu_75::Replaceable" = type { %"class.icu_75::UObject" }
%"union.icu_75::UnicodeString::StackBufferOrFields" = type { %struct.anon.0, [32 x i8] }
%struct.anon.0 = type { i16, i32, i32, ptr }
%"class.icu_75::AlphabeticIndex" = type { %"class.icu_75::UObject", ptr, i32, i32, ptr, i32, ptr, ptr, ptr, ptr, ptr, %"class.icu_75::UnicodeString", %"class.icu_75::UnicodeString", %"class.icu_75::UnicodeString", %"class.icu_75::UnicodeString", %"class.icu_75::UnicodeString" }

; Function Attrs: mustprogress nounwind uwtable
define noundef i32 @_ZNK6icu_7515AlphabeticIndex18getBucketLabelTypeEv(ptr noundef nonnull align 8 dereferenceable(400) %this) unnamed_addr #0 align 2 {
entry:
  %retval = alloca i32, align 4
  %this.addr = alloca ptr, align 8
  store ptr %this, ptr %this.addr, align 8
  %this1 = load ptr, ptr %this.addr, align 8
  %currentBucket_ = getelementptr inbounds %"class.icu_75::AlphabeticIndex", ptr %this1, i32 0, i32 4
  %0 = load ptr, ptr %currentBucket_, align 8
  %cmp = icmp ne ptr %0, null
  br i1 %cmp, label %if.then, label %if.else

if.then:                                          ; preds = %entry
  %currentBucket_2 = getelementptr inbounds %"class.icu_75::AlphabeticIndex", ptr %this1, i32 0, i32 4
  %1 = load ptr, ptr %currentBucket_2, align 8
  %labelType_ = getelementptr inbounds %"class.icu_75::AlphabeticIndex::Bucket", ptr %1, i32 0, i32 3
  %2 = load i32, ptr %labelType_, align 8
  store i32 %2, ptr %retval, align 4
  br label %return

if.else:                                          ; preds = %entry
  store i32 0, ptr %retval, align 4
  br label %return

return:                                           ; preds = %if.else, %if.then
  %3 = load i32, ptr %retval, align 4
  ret i32 %3
}