; Function Attrs: mustprogress nofree norecurse nosync nounwind willreturn memory(read, inaccessiblemem: none) uwtable
define noundef i32 @_ZNK6icu_7515AlphabeticIndex18getBucketLabelTypeEv(ptr nocapture noundef nonnull readonly align 8 dereferenceable(400) %this) unnamed_addr #2 align 2 {
entry:
  %currentBucket_ = getelementptr inbounds i8, ptr %this, i64 24
  %0 = load ptr, ptr %currentBucket_, align 8
  %cmp.not = icmp eq ptr %0, null
  br i1 %cmp.not, label %return, label %if.then

if.then:                                          ; preds = %entry
  %labelType_ = getelementptr inbounds i8, ptr %0, i64 136
  %1 = load i32, ptr %labelType_, align 8
  br label %return

return:                                           ; preds = %entry, %if.then
  %retval.0 = phi i32 [ %1, %if.then ], [ 0, %entry ]
  ret i32 %retval.0
}